Certificate:
    Data:
        Version: 1 (0x0)
        Serial Number: 1048578 (0x100002)
    Signature Algorithm: md5WithRSAEncryption
        Issuer: C=CA, ST=Ontario, L=Toronto, O=University of Toronto, OU=ECE568, CN=Bob's Server/emailAddress=ece568bob@ecf.utoronto.ca
        Validity
            Not Before: Nov  9 19:35:01 2020 GMT
            Not After : Nov  9 19:35:01 2021 GMT
        Subject: C=CA, ST=Ontario, O=University of Toronto, OU=ECE568, CN=ECE568 Certificate Authority
        Subject Public Key Info:
            Public Key Algorithm: rsaEncryption
                Public-Key: (2048 bit)
                Modulus:
                    00:9d:5f:40:f1:71:e0:f5:01:78:12:b8:55:0e:9a:
                    b8:89:69:ff:1d:a8:bb:ae:ca:8d:bb:2f:a1:19:5f:
                    08:ea:8f:c6:86:ba:cb:87:7a:18:5c:e2:4f:c2:77:
                    d3:4a:fd:23:c8:42:87:d5:a9:16:7c:ac:4f:2e:44:
                    f1:a3:ae:e5:d0:a2:45:fe:e8:d2:4d:27:e8:a7:dc:
                    73:0b:bf:c7:03:d6:f8:f5:9d:09:9f:4f:61:44:e8:
                    f5:be:e6:f6:58:77:2b:e2:7e:22:dc:f5:09:62:1e:
                    50:91:ad:c1:14:06:36:1c:38:6a:98:20:0a:86:09:
                    b3:9d:94:44:60:21:f9:fd:3c:65:13:e2:0b:6c:17:
                    42:28:dd:ae:27:06:4f:6b:6f:b3:22:ba:a8:e0:9b:
                    10:b7:27:74:b4:8d:c3:68:eb:7a:f8:b8:80:fd:82:
                    8f:f9:7b:c9:40:dd:9b:f2:a6:85:d9:f7:8c:dc:32:
                    dc:7d:9c:c5:8f:76:2e:0e:20:3b:39:c9:30:40:53:
                    d5:ed:2d:5a:b2:c6:f9:88:5e:2d:2e:70:57:a8:2a:
                    6c:59:04:f6:f9:8b:d2:ed:be:51:b9:e1:ec:13:16:
                    1a:0f:d4:3d:b2:92:64:d6:1b:17:1f:e7:7d:47:d6:
                    a1:50:f3:1b:8a:6d:ef:09:dd:b0:1c:ac:7d:65:98:
                    e6:bd
                Exponent: 65537 (0x10001)
    Signature Algorithm: md5WithRSAEncryption
         43:fb:d3:6e:59:d0:de:31:6a:51:98:4d:5e:65:7d:d3:59:67:
         20:7d:6d:60:5a:ed:ac:0e:eb:db:12:c4:61:42:5c:a4:1e:1b:
         61:c4:ca:39:74:0b:53:d9:f6:d0:bb:aa:9c:da:2f:96:62:c1:
         f1:cb:fb:06:17:9d:e4:2d:ee:52:12:4c:e3:31:5c:82:d5:a5:
         44:58:62:d0:ba:67:b6:2d:30:34:01:1f:d6:99:ae:55:83:d2:
         10:ca:13:66:e5:15:86:95:97:04:cc:9a:f2:5b:b6:8e:a2:d3:
         17:08:47:32:42:ca:3b:2e:d3:5c:d4:03:bd:69:63:eb:44:ca:
         05:d1:a6:b8:0b:d4:8c:72:ff:1e:b6:52:1e:34:36:f0:5c:54:
         5d:aa:0c:1d:cd:8e:12:d6:c7:26:c0:37:b2:25:88:0f:a7:8e:
         7b:12:7f:0c:25:07:d7:94:e3:24:05:bc:8d:9d:a2:e8:87:38:
         21:dc:45:47:c5:e2:86:5d:3c:28:e5:8f:c9:0f:5f:c0:9a:28:
         27:e3:33:63:bb:86:4c:86:1a:b6:1d:00:d7:9a:8e:a6:25:c0:
         e8:3d:bd:72:d7:e1:fc:ab:9a:05:9a:73:6a:0a:97:65:48:6b:
         5d:85:7f:e7:8a:19:24:43:00:6b:ff:4d:89:55:c8:dd:e6:8b:
         37:22:e7:72
-----BEGIN CERTIFICATE-----
MIIDkTCCAnkCAxAAAjANBgkqhkiG9w0BAQQFADCBozELMAkGA1UEBhMCQ0ExEDAO
BgNVBAgMB09udGFyaW8xEDAOBgNVBAcMB1Rvcm9udG8xHjAcBgNVBAoMFVVuaXZl
cnNpdHkgb2YgVG9yb250bzEPMA0GA1UECwwGRUNFNTY4MRUwEwYDVQQDDAxCb2In
cyBTZXJ2ZXIxKDAmBgkqhkiG9w0BCQEWGWVjZTU2OGJvYkBlY2YudXRvcm9udG8u
Y2EwHhcNMjAxMTA5MTkzNTAxWhcNMjExMTA5MTkzNTAxWjB3MQswCQYDVQQGEwJD
QTEQMA4GA1UECAwHT250YXJpbzEeMBwGA1UECgwVVW5pdmVyc2l0eSBvZiBUb3Jv
bnRvMQ8wDQYDVQQLDAZFQ0U1NjgxJTAjBgNVBAMMHEVDRTU2OCBDZXJ0aWZpY2F0
ZSBBdXRob3JpdHkwggEiMA0GCSqGSIb3DQEBAQUAA4IBDwAwggEKAoIBAQCdX0Dx
ceD1AXgSuFUOmriJaf8dqLuuyo27L6EZXwjqj8aGusuHehhc4k/Cd9NK/SPIQofV
qRZ8rE8uRPGjruXQokX+6NJNJ+in3HMLv8cD1vj1nQmfT2FE6PW+5vZYdyvifiLc
9QliHlCRrcEUBjYcOGqYIAqGCbOdlERgIfn9PGUT4gtsF0Io3a4nBk9rb7Miuqjg
mxC3J3S0jcNo63r4uID9go/5e8lA3ZvypoXZ94zcMtx9nMWPdi4OIDs5yTBAU9Xt
LVqyxvmIXi0ucFeoKmxZBPb5i9LtvlG54ewTFhoP1D2ykmTWGxcf531H1qFQ8xuK
be8J3bAcrH1lmOa9AgMBAAEwDQYJKoZIhvcNAQEEBQADggEBAEP7025Z0N4xalGY
TV5lfdNZZyB9bWBa7awO69sSxGFCXKQeG2HEyjl0C1PZ9tC7qpzaL5ZiwfHL+wYX
neQt7lISTOMxXILVpURYYtC6Z7YtMDQBH9aZrlWD0hDKE2blFYaVlwTMmvJbto6i
0xcIRzJCyjsu01zUA71pY+tEygXRprgL1Ixy/x62Uh40NvBcVF2qDB3NjhLWxybA
N7IliA+njnsSfwwlB9eU4yQFvI2douiHOCHcRUfF4oZdPCjlj8kPX8CaKCfjM2O7
hkyGGrYdANeajqYlwOg9vXLX4fyrmgWac2oKl2VIa12Ff+eKGSRDAGv/TYlVyN3m
izci53I=
-----END CERTIFICATE-----
-----BEGIN PRIVATE KEY-----
MIIEvAIBADANBgkqhkiG9w0BAQEFAASCBKYwggSiAgEAAoIBAQCdX0DxceD1AXgS
uFUOmriJaf8dqLuuyo27L6EZXwjqj8aGusuHehhc4k/Cd9NK/SPIQofVqRZ8rE8u
RPGjruXQokX+6NJNJ+in3HMLv8cD1vj1nQmfT2FE6PW+5vZYdyvifiLc9QliHlCR
rcEUBjYcOGqYIAqGCbOdlERgIfn9PGUT4gtsF0Io3a4nBk9rb7MiuqjgmxC3J3S0
jcNo63r4uID9go/5e8lA3ZvypoXZ94zcMtx9nMWPdi4OIDs5yTBAU9XtLVqyxvmI
Xi0ucFeoKmxZBPb5i9LtvlG54ewTFhoP1D2ykmTWGxcf531H1qFQ8xuKbe8J3bAc
rH1lmOa9AgMBAAECggEAFoxFU9LLNo+FUrlShosokZe8U9WPPpYLBJzoaigxsNn0
ye0NqFWYFAbhAq4EeiQW8mSF7dkSPb66gZijPp6akvANM17Mcv2a2iI94ZsSurwc
Y6Sick7/Us5GF5okBbzdbtA/0oTRWVuak6Tfmyzgp951d2Jv35CYSaWqvlNf7CZ3
l+IBLaDIIdi0WB/Cta67ctjfZZHdPhVFd0RzDMjY7YepCNq/256S7mPJpWr7ss1Y
itmM8YLrh7YXGk2sLBDk6nx3iYtz92UOg/EkFbZH7R/ntcBD6z5q2ZJSkbei/qYh
St5X+v7kVmYRHxlXkkxWNT4qNfM4fNWFRy24GrnRgQKBgQDKqWsm5hPGutWcDn5P
xcNvOVSbk36Su5lz/oOodaUgEQgF97CFcKvTLJ4tGV7HCSWeXDUU+jAFrKKE42LE
ZRmrqtOWiayoY4WbhL3WollxTYB1dV2QNCAbSGkwcNA+WjYu3G52UxWDfU+MiAo4
CGpPeJhd8oWrTuiBzkK7xrg9DQKBgQDGymMEKJyLHb8OF8PYdUTaXFS0vSDHDI2G
OxXfz3Q4KWCVnhAudQHyWFTOZm5fumGgMfZCqKt7DpEr2vKBTpOuzdfe0pmS4SOn
KTREQfqAaBT5871ibCcDDkNnu2eXoZ2r0HFQsA24QObRSCJyIe1QjEfHyWDBW1+O
6FAmC6jEcQKBgFdkaX2Tt7F5/gVWxqdVy6oZ2d9g4jMaTNkVRucNHFDQp1oTbn6M
kLv2wJsIFrPTwPIiJw3NuYmo4UhW2c+BHWnGt4lyAw92IzZmLorw5YsTdbKxEtDN
eY7qUdn+u/43XqgkjEngGCXkkroyK93v2xA8G9Bfdb7ivybCsEpTLj29AoGAKgN+
N9PJehF4XqchKi9mtOvMr0JFmiwKATOdpOa4fmIoWpbEfr0WAz0t901oyGyg03Wb
wWzaiTCD+AvXMwMDbW9tz1cdRBC3M04fEMoNAnR88nLUNOf8usWZ82OFOmPa6gQs
3svGqol0/whK12paOKrdRNlHzLXeFVr+DXxrV9ECgYBTF8SUbWm3g/wW5mr0sToo
FpcEzI+AxG8mv0shf8jzFV6kDavF3w+ofPVSAQ0bBL/cg+f+F/T++Rgn5WwQUUQ4
Cpoku5uG9BaBtmQxOAaCk2ZiNi/Rwd1H38QlidHYqUIDW6XrPSnJ4QDNfaiYabhH
rnZqW9FdS2c5WSzWavK9AA==
-----END PRIVATE KEY-----

